; Function Attrs: nofree norecurse nosync nounwind memory(readwrite, inaccessiblemem: none) uwtable
define internal fastcc noundef i64 @sf_parse_inner_list(ptr noundef writeonly %0, ptr noundef %1, ptr noundef %2) unnamed_addr #6 {
  %4 = getelementptr inbounds nuw i8, ptr %1, i64 1
  %5 = load i8, ptr %1, align 1, !tbaa !16
  %.not = icmp ne i8 %5, 40
  %6 = icmp eq ptr %4, %2
  %or.cond = select i1 %.not, i1 true, i1 %6
  br i1 %or.cond, label %sf_parse_params.exit.thread, label %.lr.ph

.lr.ph:                                           ; preds = %3, %.lr.ph.backedge
  %.145 = phi ptr [ %.145.be, %.lr.ph.backedge ], [ %4, %3 ]
  %7 = load i8, ptr %.145, align 1, !tbaa !16
  switch i8 %7, label %55 [
    i8 32, label %8
    i8 41, label %11
  ]

8:                                                ; preds = %.lr.ph
  %9 = getelementptr inbounds nuw i8, ptr %.145, i64 1
  %10 = icmp eq ptr %9, %2
  br i1 %10, label %sf_parse_params.exit.thread, label %.lr.ph.backedge

.lr.ph.backedge:                                  ; preds = %8, %61, %61
  %.145.be = phi ptr [ %9, %8 ], [ %59, %61 ], [ %59, %61 ]
  br label %.lr.ph

11:                                               ; preds = %.lr.ph
  %12 = getelementptr inbounds nuw i8, ptr %.145, i64 1
  %.not40.i = icmp eq ptr %12, %2
  br i1 %.not40.i, label %sf_parse_params.exit, label %.lr.ph.i

.lr.ph.i:                                         ; preds = %11
  %13 = ptrtoint ptr %2 to i64
  br label %14

14:                                               ; preds = %45, %.lr.ph.i
  %.041.i = phi ptr [ %12, %.lr.ph.i ], [ %.2.i, %45 ]
  %15 = load i8, ptr %.041.i, align 1, !tbaa !16
  %16 = icmp eq i8 %15, 59
  br i1 %16, label %.preheader.i, label %sf_parse_params.exit

.preheader.i:                                     ; preds = %14, %18
  %.0.pn.i = phi ptr [ %.1.i, %18 ], [ %.041.i, %14 ]
  %.1.i = getelementptr inbounds nuw i8, ptr %.0.pn.i, i64 1
  %17 = icmp eq ptr %.1.i, %2
  br i1 %17, label %sf_parse_params.exit.thread, label %18

18:                                               ; preds = %.preheader.i
  %19 = load i8, ptr %.1.i, align 1, !tbaa !16
  %.not33.i = icmp eq i8 %19, 32
  br i1 %.not33.i, label %.preheader.i, label %20

20:                                               ; preds = %18
  %21 = ptrtoint ptr %.1.i to i64
  %22 = add i8 %19, -97
  %or.cond.i.i = icmp ult i8 %22, 26
  %.not.i.i = icmp eq i8 %19, 42
  %or.cond14.i.i = or i1 %.not.i.i, %or.cond.i.i
  br i1 %or.cond14.i.i, label %.lr.ph.preheader.i.i, label %sf_parse_params.exit.thread

.lr.ph.preheader.i.i:                             ; preds = %20
  %23 = sub i64 %13, %21
  %scevgep.i.i = getelementptr i8, ptr %.1.i, i64 %23
  br label %.lr.ph.i.i

.lr.ph.i.i:                                       ; preds = %28, %.lr.ph.preheader.i.i
  %.016.i.i = phi ptr [ %29, %28 ], [ %.1.i, %.lr.ph.preheader.i.i ]
  %24 = load i8, ptr %.016.i.i, align 1, !tbaa !16
  %25 = zext i8 %24 to i64
  %26 = getelementptr inbounds nuw [256 x i32], ptr @SF_KEY_CHARS, i64 0, i64 %25
  %27 = load i32, ptr %26, align 4, !tbaa !66
  %.not13.i.i = icmp eq i32 %27, 0
  br i1 %.not13.i.i, label %sf_parse_key.exit.i, label %28

28:                                               ; preds = %.lr.ph.i.i
  %29 = getelementptr inbounds nuw i8, ptr %.016.i.i, i64 1
  %.not12.i.i = icmp eq ptr %29, %2
  br i1 %.not12.i.i, label %sf_parse_key.exit.i, label %.lr.ph.i.i, !llvm.loop !67

sf_parse_key.exit.i:                              ; preds = %28, %.lr.ph.i.i
  %.0.lcssa.ph.i.i = phi ptr [ %.016.i.i, %.lr.ph.i.i ], [ %scevgep.i.i, %28 ]
  %.pre.i.i = ptrtoint ptr %.0.lcssa.ph.i.i to i64
  %30 = sub i64 %.pre.i.i, %21
  %31 = icmp slt i64 %30, 0
  br i1 %31, label %sf_parse_params.exit.thread, label %32

32:                                               ; preds = %sf_parse_key.exit.i
  %33 = getelementptr inbounds nuw i8, ptr %.1.i, i64 %30
  %34 = icmp eq ptr %.0.lcssa.ph.i.i, %2
  br i1 %34, label %45, label %35

35:                                               ; preds = %32
  %36 = load i8, ptr %33, align 1, !tbaa !16
  %.not34.i = icmp eq i8 %36, 61
  br i1 %.not34.i, label %37, label %45

37:                                               ; preds = %35
  %38 = getelementptr inbounds nuw i8, ptr %33, i64 1
  %39 = icmp eq ptr %38, %2
  br i1 %39, label %sf_parse_params.exit.thread, label %40

40:                                               ; preds = %37
  %41 = tail call fastcc i64 @sf_parse_bare_item(ptr noundef null, ptr noundef nonnull %38, ptr noundef %2)
  %42 = icmp slt i64 %41, 0
  br i1 %42, label %sf_parse_params.exit.thread, label %43

43:                                               ; preds = %40
  %44 = getelementptr inbounds nuw i8, ptr %38, i64 %41
  br label %45

45:                                               ; preds = %43, %35, %32
  %.2.i = phi ptr [ %33, %32 ], [ %33, %35 ], [ %44, %43 ]
  %.not.i = icmp eq ptr %.2.i, %2
  br i1 %.not.i, label %sf_parse_params.exit, label %14, !llvm.loop !68

sf_parse_params.exit:                             ; preds = %14, %45, %11
  %.0.lcssa.i = phi ptr [ %2, %11 ], [ %.041.i, %14 ], [ %2, %45 ]
  %46 = ptrtoint ptr %.0.lcssa.i to i64
  %47 = ptrtoint ptr %12 to i64
  %48 = sub i64 %46, %47
  %49 = icmp slt i64 %48, 0
  br i1 %49, label %sf_parse_params.exit.thread, label %50

50:                                               ; preds = %sf_parse_params.exit
  %.not37 = icmp eq ptr %0, null
  br i1 %.not37, label %52, label %51

51:                                               ; preds = %50
  store i8 6, ptr %0, align 8, !tbaa !69
  br label %52

52:                                               ; preds = %51, %50
  %53 = ptrtoint ptr %1 to i64
  %54 = sub i64 %46, %53
  br label %sf_parse_params.exit.thread

55:                                               ; preds = %.lr.ph
  %56 = tail call fastcc i64 @sf_parse_item(ptr noundef null, ptr noundef nonnull %.145, ptr noundef %2)
  %57 = icmp slt i64 %56, 0
  br i1 %57, label %sf_parse_params.exit.thread, label %58

58:                                               ; preds = %55
  %59 = getelementptr inbounds nuw i8, ptr %.145, i64 %56
  %60 = icmp eq ptr %59, %2
  br i1 %60, label %sf_parse_params.exit.thread, label %61

61:                                               ; preds = %58
  %62 = load i8, ptr %59, align 1, !tbaa !16
  switch i8 %62, label %sf_parse_params.exit.thread [
    i8 32, label %.lr.ph.backedge
    i8 41, label %.lr.ph.backedge
  ]

sf_parse_params.exit.thread:                      ; preds = %58, %61, %55, %8, %20, %40, %37, %sf_parse_key.exit.i, %.preheader.i, %sf_parse_params.exit, %3, %52
  %.026 = phi i64 [ %54, %52 ], [ -1, %3 ], [ -1, %sf_parse_params.exit ], [ -1, %.preheader.i ], [ -1, %sf_parse_key.exit.i ], [ -1, %37 ], [ -1, %40 ], [ -1, %20 ], [ -1, %8 ], [ -1, %55 ], [ -1, %61 ], [ -1, %58 ]
  ret i64 %.026
}